; Function Attrs: mustprogress uwtable
define void @_ZN9Scheduler15RegisterThreadsEi(ptr noundef nonnull align 8 dereferenceable(43416) %0, i32 noundef %1) local_unnamed_addr #3 align 2 personality ptr @__gxx_personality_v0 {
  %3 = getelementptr inbounds nuw i8, ptr %0, i64 43288
  %4 = load i32, ptr %3, align 8
  %5 = icmp eq i32 %1, %4
  br i1 %5, label %_ZNSt6vectorIiSaIiEE6resizeEm.exit9, label %6

6:                                                ; preds = %2
  store i32 %1, ptr %3, align 8
  %7 = getelementptr inbounds nuw i8, ptr %0, i64 43216
  %8 = zext i32 %1 to i64
  %9 = getelementptr inbounds i8, ptr %0, i64 43224
  %10 = load ptr, ptr %9, align 8
  %11 = load ptr, ptr %7, align 8
  %12 = ptrtoint ptr %10 to i64
  %13 = ptrtoint ptr %11 to i64
  %14 = sub i64 %12, %13
  %15 = ashr exact i64 %14, 2
  %16 = icmp ult i64 %15, %8
  br i1 %16, label %17, label %19

17:                                               ; preds = %6
  %18 = sub nuw nsw i64 %8, %15
  tail call void @_ZNSt6vectorIiSaIiEE17_M_default_appendEm(ptr noundef nonnull align 8 dereferenceable(24) %7, i64 noundef %18)
  br label %_ZNSt6vectorIiSaIiEE6resizeEm.exit

19:                                               ; preds = %6
  %20 = icmp ugt i64 %15, %8
  br i1 %20, label %21, label %_ZNSt6vectorIiSaIiEE6resizeEm.exit

21:                                               ; preds = %19
  %22 = getelementptr inbounds i32, ptr %11, i64 %8
  %.not.i.i = icmp eq ptr %10, %22
  br i1 %.not.i.i, label %_ZNSt6vectorIiSaIiEE6resizeEm.exit, label %23

23:                                               ; preds = %21
  store ptr %22, ptr %9, align 8
  br label %_ZNSt6vectorIiSaIiEE6resizeEm.exit

_ZNSt6vectorIiSaIiEE6resizeEm.exit:               ; preds = %17, %19, %21, %23
  %24 = getelementptr inbounds nuw i8, ptr %0, i64 43240
  %25 = getelementptr inbounds i8, ptr %0, i64 43248
  %26 = load ptr, ptr %25, align 8
  %27 = load ptr, ptr %24, align 8
  %28 = ptrtoint ptr %26 to i64
  %29 = ptrtoint ptr %27 to i64
  %30 = sub i64 %28, %29
  %31 = ashr exact i64 %30, 2
  %32 = icmp ult i64 %31, %8
  br i1 %32, label %33, label %35

33:                                               ; preds = %_ZNSt6vectorIiSaIiEE6resizeEm.exit
  %34 = sub nuw nsw i64 %8, %31
  tail call void @_ZNSt6vectorIiSaIiEE17_M_default_appendEm(ptr noundef nonnull align 8 dereferenceable(24) %24, i64 noundef %34)
  br label %_ZNSt6vectorIiSaIiEE6resizeEm.exit7

35:                                               ; preds = %_ZNSt6vectorIiSaIiEE6resizeEm.exit
  %36 = icmp ugt i64 %31, %8
  br i1 %36, label %37, label %_ZNSt6vectorIiSaIiEE6resizeEm.exit7

37:                                               ; preds = %35
  %38 = getelementptr inbounds i32, ptr %27, i64 %8
  %.not.i.i6 = icmp eq ptr %26, %38
  br i1 %.not.i.i6, label %_ZNSt6vectorIiSaIiEE6resizeEm.exit7, label %39

39:                                               ; preds = %37
  store ptr %38, ptr %25, align 8
  br label %_ZNSt6vectorIiSaIiEE6resizeEm.exit7

_ZNSt6vectorIiSaIiEE6resizeEm.exit7:              ; preds = %33, %35, %37, %39
  %40 = getelementptr inbounds nuw i8, ptr %0, i64 43264
  %41 = getelementptr inbounds i8, ptr %0, i64 43272
  %42 = load ptr, ptr %41, align 8
  %43 = load ptr, ptr %40, align 8
  %44 = ptrtoint ptr %42 to i64
  %45 = ptrtoint ptr %43 to i64
  %46 = sub i64 %44, %45
  %47 = ashr exact i64 %46, 2
  %48 = icmp ult i64 %47, %8
  br i1 %48, label %49, label %51

49:                                               ; preds = %_ZNSt6vectorIiSaIiEE6resizeEm.exit7
  %50 = sub nuw nsw i64 %8, %47
  tail call void @_ZNSt6vectorIiSaIiEE17_M_default_appendEm(ptr noundef nonnull align 8 dereferenceable(24) %40, i64 noundef %50)
  br label %_ZNSt6vectorIiSaIiEE6resizeEm.exit9

51:                                               ; preds = %_ZNSt6vectorIiSaIiEE6resizeEm.exit7
  %52 = icmp ugt i64 %47, %8
  br i1 %52, label %53, label %_ZNSt6vectorIiSaIiEE6resizeEm.exit9

53:                                               ; preds = %51
  %54 = getelementptr inbounds i32, ptr %43, i64 %8
  %.not.i.i8 = icmp eq ptr %42, %54
  br i1 %.not.i.i8, label %_ZNSt6vectorIiSaIiEE6resizeEm.exit9, label %55

55:                                               ; preds = %53
  store ptr %54, ptr %41, align 8
  br label %_ZNSt6vectorIiSaIiEE6resizeEm.exit9

_ZNSt6vectorIiSaIiEE6resizeEm.exit9:              ; preds = %55, %53, %51, %49, %2
  ret void
}